target datalayout = "e-m:e-p270:32:32-p271:32:32-p272:64:64-i64:64-i128:128-f80:128-n8:16:32:64-S128"
target triple = "x86_64-pc-linux-gnu"

%"class.std::shared_ptr" = type { %"class.std::__shared_ptr" }
%"class.std::__shared_ptr" = type { ptr, %"class.std::__shared_count" }
%"class.std::__shared_count" = type { ptr }
%"class.open_spiel::spades::SpadesState" = type <{ %"class.open_spiel::State.base", i8, [3 x i8], i32, i32, i32, i32, %"struct.std::array", i8, [3 x i8], %"struct.std::array.9", i32, i32, i32, %"struct.std::array.9", %"struct.std::array.10", [4 x i8], %"class.std::vector.11", %"struct.std::array.16", %"struct.std::array.18", i8, [7 x i8] }>
%"class.open_spiel::State.base" = type <{ ptr, %"class.std::shared_ptr", i32, i32, %"class.std::vector", i32 }>
%"class.std::vector" = type { %"struct.std::_Vector_base" }
%"struct.std::_Vector_base" = type { %"struct.std::_Vector_base<open_spiel::State::PlayerAction, std::allocator<open_spiel::State::PlayerAction>>::_Vector_impl" }
%"struct.std::_Vector_base<open_spiel::State::PlayerAction, std::allocator<open_spiel::State::PlayerAction>>::_Vector_impl" = type { %"struct.std::_Vector_base<open_spiel::State::PlayerAction, std::allocator<open_spiel::State::PlayerAction>>::_Vector_impl_data" }
%"struct.std::_Vector_base<open_spiel::State::PlayerAction, std::allocator<open_spiel::State::PlayerAction>>::_Vector_impl_data" = type { ptr, ptr, ptr }
%"struct.std::array" = type { [2 x i32] }
%"struct.std::array.9" = type { [4 x i32] }
%"struct.std::array.10" = type { [13 x %"class.open_spiel::spades::Trick"] }
%"class.open_spiel::spades::Trick" = type { i32, i32, i32, i32, i32 }
%"class.std::vector.11" = type { %"struct.std::_Vector_base.12" }
%"struct.std::_Vector_base.12" = type { %"struct.std::_Vector_base<double, std::allocator<double>>::_Vector_impl" }
%"struct.std::_Vector_base<double, std::allocator<double>>::_Vector_impl" = type { %"struct.std::_Vector_base<double, std::allocator<double>>::_Vector_impl_data" }
%"struct.std::_Vector_base<double, std::allocator<double>>::_Vector_impl_data" = type { ptr, ptr, ptr }
%"struct.std::array.16" = type { [52 x %"class.absl::debian2::optional"] }
%"class.absl::debian2::optional" = type { %"class.absl::debian2::optional_internal::optional_data" }
%"class.absl::debian2::optional_internal::optional_data" = type { %"class.absl::debian2::optional_internal::optional_data_base" }
%"class.absl::debian2::optional_internal::optional_data_base" = type { %"class.absl::debian2::optional_internal::optional_data_dtor_base" }
%"class.absl::debian2::optional_internal::optional_data_dtor_base" = type { i8, %union.anon.17 }
%union.anon.17 = type { i32 }
%"struct.std::array.18" = type { [56 x i8] }

; Function Attrs: mustprogress nounwind uwtable
define linkonce_odr noundef nonnull align 4 dereferenceable(4) ptr @_ZNSt14__array_traitsIiLm2EE6_S_refERA2_Kim(ptr noundef nonnull align 4 dereferenceable(8) %0, i64 noundef %1) #5 comdat align 2 {
  %3 = alloca ptr, align 8
  %4 = alloca i64, align 8
  store ptr %0, ptr %3, align 8
  store i64 %1, ptr %4, align 8
  %5 = load ptr, ptr %3, align 8
  %6 = load i64, ptr %4, align 8
  %7 = getelementptr inbounds [2 x i32], ptr %5, i64 0, i64 %6
  ret ptr %7
}

; Function Attrs: mustprogress nounwind uwtable
define linkonce_odr noundef nonnull align 8 dereferenceable(8) ptr @_ZNSt6vectorIdSaIdEEixEm(ptr noundef nonnull align 8 dereferenceable(24) %0, i64 noundef %1) #5 comdat align 2 {
  %3 = alloca ptr, align 8
  %4 = alloca i64, align 8
  store ptr %0, ptr %3, align 8
  store i64 %1, ptr %4, align 8
  %5 = load ptr, ptr %3, align 8
  %6 = getelementptr inbounds nuw %"struct.std::_Vector_base.12", ptr %5, i32 0, i32 0
  %7 = getelementptr inbounds nuw %"struct.std::_Vector_base<double, std::allocator<double>>::_Vector_impl_data", ptr %6, i32 0, i32 0
  %8 = load ptr, ptr %7, align 8
  %9 = load i64, ptr %4, align 8
  %10 = getelementptr inbounds double, ptr %8, i64 %9
  ret ptr %10
}

; Function Attrs: mustprogress nounwind uwtable
define internal noundef i32 @_ZN10open_spiel6spades12_GLOBAL__N_111PartnershipEi(i32 noundef %0) #5 {
  %2 = alloca i32, align 4
  store i32 %0, ptr %2, align 4
  %3 = load i32, ptr %2, align 4
  %4 = and i32 %3, 1
  ret i32 %4
}

; Function Attrs: mustprogress nounwind uwtable
define linkonce_odr noundef nonnull align 4 dereferenceable(4) ptr @_ZNSt5arrayIiLm2EEixEm(ptr noundef nonnull align 4 dereferenceable(8) %0, i64 noundef %1) #5 comdat align 2 {
  %3 = alloca ptr, align 8
  %4 = alloca i64, align 8
  store ptr %0, ptr %3, align 8
  store i64 %1, ptr %4, align 8
  %5 = load ptr, ptr %3, align 8
  %6 = getelementptr inbounds nuw %"struct.std::array", ptr %5, i32 0, i32 0
  %7 = load i64, ptr %4, align 8
  %8 = call noundef nonnull align 4 dereferenceable(4) ptr @_ZNSt14__array_traitsIiLm2EE6_S_refERA2_Kim(ptr noundef nonnull align 4 dereferenceable(8) %6, i64 noundef %7) #3
  ret ptr %8
}

; Function Attrs: mustprogress uwtable
define void @_ZN10open_spiel6spades11SpadesState7ScoreUpEv(ptr noundef nonnull align 8 dereferenceable(897) %0) #4 align 2 {
  %2 = alloca ptr, align 8
  %3 = alloca %"struct.std::array", align 4
  %4 = alloca %"struct.std::array.9", align 4
  %5 = alloca %"struct.std::array.9", align 4
  %6 = alloca %"struct.std::array", align 4
  %7 = alloca i32, align 4
  %8 = alloca i32, align 4
  store ptr %0, ptr %2, align 8
  %9 = load ptr, ptr %2, align 8
  %10 = getelementptr inbounds nuw %"class.open_spiel::spades::SpadesState", ptr %9, i32 0, i32 14
  call void @llvm.memcpy.p0.p0.i64(ptr align 4 %4, ptr align 8 %10, i64 16, i1 false)
  %11 = getelementptr inbounds nuw %"class.open_spiel::spades::SpadesState", ptr %9, i32 0, i32 10
  call void @llvm.memcpy.p0.p0.i64(ptr align 4 %5, ptr align 4 %11, i64 16, i1 false)
  %12 = getelementptr inbounds nuw %"class.open_spiel::spades::SpadesState", ptr %9, i32 0, i32 7
  call void @llvm.memcpy.p0.p0.i64(ptr align 4 %6, ptr align 8 %12, i64 8, i1 false)
  %13 = getelementptr inbounds nuw { i64, i64 }, ptr %4, i32 0, i32 0
  %14 = load i64, ptr %13, align 4
  %15 = getelementptr inbounds nuw { i64, i64 }, ptr %4, i32 0, i32 1
  %16 = load i64, ptr %15, align 4
  %17 = getelementptr inbounds nuw { i64, i64 }, ptr %5, i32 0, i32 0
  %18 = load i64, ptr %17, align 4
  %19 = getelementptr inbounds nuw { i64, i64 }, ptr %5, i32 0, i32 1
  %20 = load i64, ptr %19, align 4
  %21 = getelementptr inbounds nuw %"struct.std::array", ptr %6, i32 0, i32 0
  %22 = load i64, ptr %21, align 4
  %23 = call i64 @_ZN10open_spiel6spades5ScoreESt5arrayIiLm4EES2_S1_IiLm2EE(i64 %14, i64 %16, i64 %18, i64 %20, i64 %22)
  %24 = getelementptr inbounds nuw %"struct.std::array", ptr %3, i32 0, i32 0
  store i64 %23, ptr %24, align 4
  store i32 0, ptr %7, align 4
  br label %25

25:                                               ; preds = %100, %1
  %26 = load i32, ptr %7, align 4
  %27 = icmp slt i32 %26, 2
  br i1 %27, label %28, label %103

28:                                               ; preds = %25
  %29 = load i32, ptr %7, align 4
  %30 = sext i32 %29 to i64
  %31 = call noundef nonnull align 4 dereferenceable(4) ptr @_ZNSt5arrayIiLm2EEixEm(ptr noundef nonnull align 4 dereferenceable(8) %3, i64 noundef %30) #3
  %32 = load i32, ptr %31, align 4
  %33 = getelementptr inbounds nuw %"class.open_spiel::spades::SpadesState", ptr %9, i32 0, i32 7
  %34 = load i32, ptr %7, align 4
  %35 = sext i32 %34 to i64
  %36 = call noundef nonnull align 4 dereferenceable(4) ptr @_ZNSt5arrayIiLm2EEixEm(ptr noundef nonnull align 4 dereferenceable(8) %33, i64 noundef %35) #3
  %37 = load i32, ptr %36, align 4
  %38 = add nsw i32 %37, %32
  store i32 %38, ptr %36, align 4
  %39 = load i32, ptr %7, align 4
  %40 = sext i32 %39 to i64
  %41 = call noundef nonnull align 4 dereferenceable(4) ptr @_ZNSt5arrayIiLm2EEixEm(ptr noundef nonnull align 4 dereferenceable(8) %3, i64 noundef %40) #3
  %42 = load i32, ptr %41, align 4
  %43 = getelementptr inbounds nuw %"class.open_spiel::spades::SpadesState", ptr %9, i32 0, i32 4
  %44 = load i32, ptr %43, align 4
  %45 = icmp sge i32 %42, %44
  br i1 %45, label %46, label %66

46:                                               ; preds = %28
  %47 = load i32, ptr %7, align 4
  %48 = sext i32 %47 to i64
  %49 = call noundef nonnull align 4 dereferenceable(4) ptr @_ZNSt5arrayIiLm2EEixEm(ptr noundef nonnull align 4 dereferenceable(8) %3, i64 noundef %48) #3
  %50 = load i32, ptr %49, align 4
  %51 = load i32, ptr %7, align 4
  %52 = xor i32 %51, 1
  %53 = sext i32 %52 to i64
  %54 = call noundef nonnull align 4 dereferenceable(4) ptr @_ZNSt5arrayIiLm2EEixEm(ptr noundef nonnull align 4 dereferenceable(8) %3, i64 noundef %53) #3
  %55 = load i32, ptr %54, align 4
  %56 = icmp sgt i32 %50, %55
  br i1 %56, label %57, label %66

57:                                               ; preds = %46
  %58 = getelementptr inbounds nuw %"class.open_spiel::spades::SpadesState", ptr %9, i32 0, i32 5
  %59 = load i32, ptr %58, align 8
  %60 = load i32, ptr %7, align 4
  %61 = sext i32 %60 to i64
  %62 = call noundef nonnull align 4 dereferenceable(4) ptr @_ZNSt5arrayIiLm2EEixEm(ptr noundef nonnull align 4 dereferenceable(8) %3, i64 noundef %61) #3
  %63 = load i32, ptr %62, align 4
  %64 = add nsw i32 %63, %59
  store i32 %64, ptr %62, align 4
  %65 = getelementptr inbounds nuw %"class.open_spiel::spades::SpadesState", ptr %9, i32 0, i32 8
  store i8 1, ptr %65, align 8
  br label %99

66:                                               ; preds = %46, %28
  %67 = getelementptr inbounds nuw %"class.open_spiel::spades::SpadesState", ptr %9, i32 0, i32 3
  %68 = load i32, ptr %67, align 8
  %69 = icmp ne i32 %68, 0
  br i1 %69, label %70, label %98

70:                                               ; preds = %66
  %71 = load i32, ptr %7, align 4
  %72 = sext i32 %71 to i64
  %73 = call noundef nonnull align 4 dereferenceable(4) ptr @_ZNSt5arrayIiLm2EEixEm(ptr noundef nonnull align 4 dereferenceable(8) %3, i64 noundef %72) #3
  %74 = load i32, ptr %73, align 4
  %75 = getelementptr inbounds nuw %"class.open_spiel::spades::SpadesState", ptr %9, i32 0, i32 3
  %76 = load i32, ptr %75, align 8
  %77 = icmp sle i32 %74, %76
  br i1 %77, label %78, label %98

78:                                               ; preds = %70
  %79 = load i32, ptr %7, align 4
  %80 = sext i32 %79 to i64
  %81 = call noundef nonnull align 4 dereferenceable(4) ptr @_ZNSt5arrayIiLm2EEixEm(ptr noundef nonnull align 4 dereferenceable(8) %3, i64 noundef %80) #3
  %82 = load i32, ptr %81, align 4
  %83 = load i32, ptr %7, align 4
  %84 = xor i32 %83, 1
  %85 = sext i32 %84 to i64
  %86 = call noundef nonnull align 4 dereferenceable(4) ptr @_ZNSt5arrayIiLm2EEixEm(ptr noundef nonnull align 4 dereferenceable(8) %3, i64 noundef %85) #3
  %87 = load i32, ptr %86, align 4
  %88 = icmp slt i32 %82, %87
  br i1 %88, label %89, label %98

89:                                               ; preds = %78
  %90 = getelementptr inbounds nuw %"class.open_spiel::spades::SpadesState", ptr %9, i32 0, i32 5
  %91 = load i32, ptr %90, align 8
  %92 = load i32, ptr %7, align 4
  %93 = sext i32 %92 to i64
  %94 = call noundef nonnull align 4 dereferenceable(4) ptr @_ZNSt5arrayIiLm2EEixEm(ptr noundef nonnull align 4 dereferenceable(8) %3, i64 noundef %93) #3
  %95 = load i32, ptr %94, align 4
  %96 = sub nsw i32 %95, %91
  store i32 %96, ptr %94, align 4
  %97 = getelementptr inbounds nuw %"class.open_spiel::spades::SpadesState", ptr %9, i32 0, i32 8
  store i8 1, ptr %97, align 8
  br label %98

98:                                               ; preds = %89, %78, %70, %66
  br label %99

99:                                               ; preds = %98, %57
  br label %100

100:                                              ; preds = %99
  %101 = load i32, ptr %7, align 4
  %102 = add nsw i32 %101, 1
  store i32 %102, ptr %7, align 4
  br label %25, !llvm.loop !33

103:                                              ; preds = %25
  store i32 0, ptr %8, align 4
  br label %104

104:                                              ; preds = %118, %103
  %105 = load i32, ptr %8, align 4
  %106 = icmp slt i32 %105, 4
  br i1 %106, label %107, label %121

107:                                              ; preds = %104
  %108 = load i32, ptr %8, align 4
  %109 = call noundef i32 @_ZN10open_spiel6spades12_GLOBAL__N_111PartnershipEi(i32 noundef %108)
  %110 = sext i32 %109 to i64
  %111 = call noundef nonnull align 4 dereferenceable(4) ptr @_ZNSt5arrayIiLm2EEixEm(ptr noundef nonnull align 4 dereferenceable(8) %3, i64 noundef %110) #3
  %112 = load i32, ptr %111, align 4
  %113 = sitofp i32 %112 to double
  %114 = getelementptr inbounds nuw %"class.open_spiel::spades::SpadesState", ptr %9, i32 0, i32 17
  %115 = load i32, ptr %8, align 4
  %116 = sext i32 %115 to i64
  %117 = call noundef nonnull align 8 dereferenceable(8) ptr @_ZNSt6vectorIdSaIdEEixEm(ptr noundef nonnull align 8 dereferenceable(24) %114, i64 noundef %116) #3
  store double %113, ptr %117, align 8
  br label %118

118:                                              ; preds = %107
  %119 = load i32, ptr %8, align 4
  %120 = add nsw i32 %119, 1
  store i32 %120, ptr %8, align 4
  br label %104, !llvm.loop !34

121:                                              ; preds = %104
  ret void
}