; Function Attrs: mustprogress uwtable
define void @_ZN10open_spiel6spades11SpadesState7ScoreUpEv(ptr nocapture noundef nonnull align 8 dereferenceable(897) %0) local_unnamed_addr #3 align 2 {
  %2 = alloca %"struct.std::array", align 8
  %3 = getelementptr inbounds nuw i8, ptr %0, i64 120
  %.sroa.017.0.copyload = load i64, ptr %3, align 8
  %.sroa.218.0..sroa_idx = getelementptr inbounds i8, ptr %0, i64 128
  %.sroa.218.0.copyload = load i64, ptr %.sroa.218.0..sroa_idx, align 8
  %4 = getelementptr inbounds nuw i8, ptr %0, i64 92
  %.sroa.016.0.copyload = load i64, ptr %4, align 4
  %.sroa.2.0..sroa_idx = getelementptr inbounds i8, ptr %0, i64 100
  %.sroa.2.0.copyload = load i64, ptr %.sroa.2.0..sroa_idx, align 4
  %5 = getelementptr inbounds nuw i8, ptr %0, i64 80
  %.sroa.0.0.copyload = load i64, ptr %5, align 8
  %6 = tail call i64 @_ZN10open_spiel6spades5ScoreESt5arrayIiLm4EES2_S1_IiLm2EE(i64 %.sroa.017.0.copyload, i64 %.sroa.218.0.copyload, i64 %.sroa.016.0.copyload, i64 %.sroa.2.0.copyload, i64 %.sroa.0.0.copyload)
  store i64 %6, ptr %2, align 8
  %7 = getelementptr inbounds nuw i8, ptr %0, i64 68
  %8 = load i32, ptr %7, align 4
  %9 = getelementptr inbounds nuw i8, ptr %0, i64 72
  %10 = load i32, ptr %9, align 8
  %11 = getelementptr inbounds nuw i8, ptr %0, i64 88
  %12 = getelementptr inbounds nuw i8, ptr %0, i64 64
  %13 = load i32, ptr %12, align 8
  %.fr = freeze i32 %13
  %.not20 = icmp eq i32 %.fr, 0
  %indvars.iv.sroa.gep = getelementptr inbounds i8, ptr %2, i64 4
  %indvars.iv27.sroa.gep = getelementptr inbounds i8, ptr %2, i64 4
  br i1 %.not20, label %.split.us, label %.split

.split.us:                                        ; preds = %1, %26
  %14 = phi i1 [ false, %26 ], [ true, %1 ]
  %indvars.iv27.sroa.phi = phi ptr [ %indvars.iv27.sroa.gep, %26 ], [ %2, %1 ]
  %indvars.iv27 = phi i64 [ 1, %26 ], [ 0, %1 ]
  %15 = load i32, ptr %indvars.iv27.sroa.phi, align 4
  %16 = getelementptr inbounds [2 x i32], ptr %5, i64 0, i64 %indvars.iv27
  %17 = load i32, ptr %16, align 4
  %18 = add nsw i32 %17, %15
  store i32 %18, ptr %16, align 4
  %.not.us = icmp slt i32 %15, %8
  br i1 %.not.us, label %26, label %19

19:                                               ; preds = %.split.us
  %20 = xor i64 %indvars.iv27, 1
  %21 = getelementptr inbounds [2 x i32], ptr %2, i64 0, i64 %20
  %22 = load i32, ptr %21, align 4
  %23 = icmp sgt i32 %15, %22
  br i1 %23, label %24, label %26

24:                                               ; preds = %19
  %25 = add nsw i32 %10, %15
  store i32 %25, ptr %indvars.iv27.sroa.phi, align 4
  store i8 1, ptr %11, align 8
  br label %26

26:                                               ; preds = %.split.us, %19, %24
  br i1 %14, label %.split.us, label %.preheader, !llvm.loop !68

.preheader:                                       ; preds = %48, %26
  %27 = getelementptr inbounds nuw i8, ptr %0, i64 400
  br label %49

.split:                                           ; preds = %1, %48
  %28 = phi i1 [ false, %48 ], [ true, %1 ]
  %indvars.iv.sroa.phi = phi ptr [ %indvars.iv.sroa.gep, %48 ], [ %2, %1 ]
  %indvars.iv = phi i64 [ 1, %48 ], [ 0, %1 ]
  %29 = load i32, ptr %indvars.iv.sroa.phi, align 4
  %30 = getelementptr inbounds [2 x i32], ptr %5, i64 0, i64 %indvars.iv
  %31 = load i32, ptr %30, align 4
  %32 = add nsw i32 %31, %29
  store i32 %32, ptr %30, align 4
  %.not = icmp slt i32 %29, %8
  br i1 %.not, label %40, label %33

33:                                               ; preds = %.split
  %34 = xor i64 %indvars.iv, 1
  %35 = getelementptr inbounds [2 x i32], ptr %2, i64 0, i64 %34
  %36 = load i32, ptr %35, align 4
  %37 = icmp sgt i32 %29, %36
  br i1 %37, label %38, label %40

38:                                               ; preds = %33
  %39 = add nsw i32 %10, %29
  br label %.sink.split

40:                                               ; preds = %33, %.split
  %.not21 = icmp sgt i32 %29, %.fr
  br i1 %.not21, label %48, label %41

41:                                               ; preds = %40
  %42 = xor i64 %indvars.iv, 1
  %43 = getelementptr inbounds [2 x i32], ptr %2, i64 0, i64 %42
  %44 = load i32, ptr %43, align 4
  %45 = icmp slt i32 %29, %44
  br i1 %45, label %46, label %48

46:                                               ; preds = %41
  %47 = sub nsw i32 %29, %10
  br label %.sink.split

.sink.split:                                      ; preds = %46, %38
  %.sink = phi i32 [ %39, %38 ], [ %47, %46 ]
  store i32 %.sink, ptr %indvars.iv.sroa.phi, align 4
  store i8 1, ptr %11, align 8
  br label %48

48:                                               ; preds = %.sink.split, %41, %40
  br i1 %28, label %.split, label %.preheader, !llvm.loop !68

49:                                               ; preds = %.preheader, %49
  %indvars.iv30 = phi i64 [ 0, %.preheader ], [ %indvars.iv.next31, %49 ]
  %50 = and i64 %indvars.iv30, 1
  %51 = getelementptr inbounds [2 x i32], ptr %2, i64 0, i64 %50
  %52 = load i32, ptr %51, align 4
  %53 = sitofp i32 %52 to double
  %54 = load ptr, ptr %27, align 8
  %55 = getelementptr inbounds double, ptr %54, i64 %indvars.iv30
  store double %53, ptr %55, align 8
  %indvars.iv.next31 = add nuw nsw i64 %indvars.iv30, 1
  %exitcond.not = icmp eq i64 %indvars.iv.next31, 4
  br i1 %exitcond.not, label %56, label %49, !llvm.loop !69

56:                                               ; preds = %49
  ret void
}